ccopy_reg
_reconstructor
p0
(csklearn.ensemble.weight_boosting
AdaBoostClassifier
p1
c__builtin__
object
p2
Ntp3
Rp4
(dp5
S'base_estimator'
p6
NsS'estimators_'
p7
(lp8
sS'algorithm'
p9
S'SAMME.R'
p10
sS'learning_rate'
p11
F1.0
sS'n_estimators'
p12
I1000
sS'random_state'
p13
I202
sS'estimator_params'
p14
(tsb.