(dp0
S'METTS MARK'
p1
(dp2
S'to_messages'
p3
I807
sS'deferral_payments'
p4
S'NaN'
p5
sS'expenses'
p6
I94299
sS'poi'
p7
I00
sS'deferred_income'
p8
g5
sS'email_address'
p9
S'mark.metts@enron.com'
p10
sS'long_term_incentive'
p11
g5
sS'fraction_from_poi'
p12
F0.04708798017348203
sS'restricted_stock_deferred'
p13
g5
sS'shared_receipt_with_poi'
p14
I702
sS'loan_advances'
p15
g5
sS'from_messages'
p16
I29
sS'other'
p17
I1740
sS'director_fees'
p18
g5
sS'bonus'
p19
I600000
sS'total_stock_value'
p20
I585062
sS'from_poi_to_this_person'
p21
I38
sS'from_this_person_to_poi'
p22
I1
sS'expenses_per_salary'
p23
F0.25779686594420814
sS'restricted_stock'
p24
I585062
sS'salary'
p25
I365788
sS'fraction_emails_with_poi'
p26
F0.04665071770334928
sS'total_payments'
p27
I1061827
sS'fraction_to_poi'
p28
F0.034482758620689655
sS'exercised_stock_options'
p29
g5
ssS'BAXTER JOHN C'
p30
(dp31
g3
g5
sg4
I1295738
sg6
I11200
sg7
I00
sg8
I-1386055
sg9
g5
sg11
I1586055
sg12
I0
sg13
g5
sg14
g5
sg15
g5
sg16
g5
sg17
I2660303
sg18
g5
sg19
I1200000
sg20
I10623258
sg21
g5
sg22
g5
sg23
F0.041931546749930736
sg24
I3942714
sg25
I267102
sg26
I0
sg27
I5634343
sg28
I0
sg29
I6680544
ssS'ELLIOTT STEVEN'
p32
(dp33
g3
g5
sg4
g5
sg6
I78552
sg7
I00
sg8
I-400729
sg9
S'steven.elliott@enron.com'
p34
sg11
g5
sg12
I0
sg13
g5
sg14
g5
sg15
g5
sg16
g5
sg17
I12961
sg18
g5
sg19
I350000
sg20
I6678735
sg21
g5
sg22
g5
sg23
F0.45952697129418923
sg24
I1788391
sg25
I170941
sg26
I0
sg27
I211725
sg28
I0
sg29
I4890344
ssS'CORDES WILLIAM R'
p35
(dp36
g3
I764
sg4
g5
sg6
g5
sg7
I00
sg8
g5
sg9
S'bill.cordes@enron.com'
p37
sg11
g5
sg12
F0.013089005235602094
sg13
g5
sg14
I58
sg15
g5
sg16
I12
sg17
g5
sg18
g5
sg19
g5
sg20
I1038185
sg21
I10
sg22
I0
sg23
I0
sg24
I386335
sg25
g5
sg26
F0.01288659793814433
sg27
g5
sg28
F0.0
sg29
I651850
ssS'HANNON KEVIN P'
p38
(dp39
g3
I1045
sg4
g5
sg6
I34039
sg7
I01
sg8
I-3117011
sg9
S'kevin.hannon@enron.com'
p40
sg11
I1617011
sg12
F0.03062200956937799
sg13
g5
sg14
I1035
sg15
g5
sg16
I32
sg17
I11350
sg18
g5
sg19
I1500000
sg20
I6391065
sg21
I32
sg22
I21
sg23
F0.1399094918472788
sg24
I853064
sg25
I243293
sg26
F0.04921077065923862
sg27
I288682
sg28
F0.65625
sg29
I5538001
ssS'MORDAUNT KRISTINA M'
p41
(dp42
g3
g5
sg4
g5
sg6
I35018
sg7
I00
sg8
g5
sg9
S'kristina.mordaunt@enron.com'
p43
sg11
g5
sg12
I0
sg13
g5
sg14
g5
sg15
g5
sg16
g5
sg17
I1411
sg18
g5
sg19
I325000
sg20
I208510
sg21
g5
sg22
g5
sg23
F0.13110789125884992
sg24
I208510
sg25
I267093
sg26
I0
sg27
I628522
sg28
I0
sg29
g5
ssS'MEYER ROCKFORD G'
p44
(dp45
g3
I232
sg4
I1848227
sg6
g5
sg7
I00
sg8
g5
sg9
S'rockford.meyer@enron.com'
p46
sg11
g5
sg12
F0.0
sg13
g5
sg14
I22
sg15
g5
sg16
I28
sg17
g5
sg18
g5
sg19
g5
sg20
I955873
sg21
I0
sg22
I0
sg23
I0
sg24
I462384
sg25
g5
sg26
F0.0
sg27
I1848227
sg28
F0.0
sg29
I493489
ssS'MCMAHON JEFFREY'
p47
(dp48
g3
I2355
sg4
g5
sg6
I137108
sg7
I00
sg8
g5
sg9
S'jeffrey.mcmahon@enron.com'
p49
sg11
I694862
sg12
F0.024628450106157114
sg13
g5
sg14
I2228
sg15
g5
sg16
I48
sg17
I297353
sg18
g5
sg19
I2600000
sg20
I1662855
sg21
I58
sg22
I26
sg23
F0.3701140241005485
sg24
I558801
sg25
I370448
sg26
F0.03495630461922597
sg27
I4099771
sg28
F0.5416666666666666
sg29
I1104054
ssS'HORTON STANLEY C'
p50
(dp51
g3
I2350
sg4
I3131860
sg6
g5
sg7
I00
sg8
g5
sg9
S'stanley.horton@enron.com'
p52
sg11
g5
sg12
F0.01872340425531915
sg13
g5
sg14
I1074
sg15
g5
sg16
I1073
sg17
g5
sg18
g5
sg19
g5
sg20
I7256648
sg21
I44
sg22
I15
sg23
I0
sg24
I2046079
sg25
g5
sg26
F0.017236342389716622
sg27
I3131860
sg28
F0.013979496738117428
sg29
I5210569
ssS'PIPER GREGORY F'
p53
(dp54
g3
I1238
sg4
I1130036
sg6
I43057
sg7
I00
sg8
I-33333
sg9
S'greg.piper@enron.com'
p55
sg11
g5
sg12
F0.049273021001615507
sg13
I-409554
sg14
I742
sg15
g5
sg16
I222
sg17
I778
sg18
g5
sg19
I400000
sg20
I880290
sg21
I61
sg22
I48
sg23
F0.21846253760953063
sg24
I409554
sg25
I197091
sg26
F0.07465753424657534
sg27
I1737629
sg28
F0.21621621621621623
sg29
I880290
ssS'HUMPHREY GENE E'
p56
(dp57
g3
I128
sg4
I2964506
sg6
I4994
sg7
I00
sg8
g5
sg9
S'gene.humphrey@enron.com'
p58
sg11
g5
sg12
F0.078125
sg13
g5
sg14
I119
sg15
g5
sg16
I17
sg17
g5
sg18
g5
sg19
g5
sg20
I2282768
sg21
I10
sg22
I17
sg23
F0.038202625378660385
sg24
g5
sg25
I130724
sg26
F0.18620689655172415
sg27
I3100224
sg28
F1.0
sg29
I2282768
ssS'UMANOFF ADAM S'
p59
(dp60
g3
I111
sg4
g5
sg6
I53122
sg7
I00
sg8
g5
sg9
S'adam.umanoff@enron.com'
p61
sg11
g5
sg12
F0.10810810810810811
sg13
g5
sg14
I41
sg15
g5
sg16
I18
sg17
g5
sg18
g5
sg19
I788750
sg20
g5
sg21
I12
sg22
I0
sg23
F0.18407493009089052
sg24
g5
sg25
I288589
sg26
F0.09302325581395349
sg27
I1130461
sg28
F0.0
sg29
g5
ssS'BLACHMAN JEREMY M'
p62
(dp63
g3
I2475
sg4
g5
sg6
I84208
sg7
I00
sg8
g5
sg9
S'jeremy.blachman@enron.com'
p64
sg11
I831809
sg12
F0.010101010101010102
sg13
g5
sg14
I2326
sg15
g5
sg16
I14
sg17
I272
sg18
g5
sg19
I850000
sg20
I954354
sg21
I25
sg22
I2
sg23
F0.3388024751957384
sg24
I189041
sg25
I248546
sg26
F0.010847730012053034
sg27
I2014835
sg28
F0.14285714285714285
sg29
I765313
ssS'SUNDE MARTIN'
p65
(dp66
g3
I2647
sg4
g5
sg6
g5
sg7
I00
sg8
g5
sg9
S'marty.sunde@enron.com'
p67
sg11
I476451
sg12
F0.013978088401964487
sg13
g5
sg14
I2565
sg15
g5
sg16
I38
sg17
I111122
sg18
g5
sg19
I700000
sg20
I698920
sg21
I37
sg22
I13
sg23
I0
sg24
I698920
sg25
I257486
sg26
F0.0186219739292365
sg27
I1545059
sg28
F0.34210526315789475
sg29
g5
ssS'GIBBS DANA R'
p68
(dp69
g3
I169
sg4
I504610
sg6
g5
sg7
I00
sg8
g5
sg9
S'dana.gibbs@enron.com'
p70
sg11
I461912
sg12
F0.0
sg13
g5
sg14
I23
sg15
g5
sg16
I12
sg17
g5
sg18
g5
sg19
g5
sg20
I2218275
sg21
I0
sg22
I0
sg23
I0
sg24
g5
sg25
g5
sg26
F0.0
sg27
I966522
sg28
F0.0
sg29
I2218275
ssS'LOWRY CHARLES P'
p71
(dp72
g3
g5
sg4
g5
sg6
g5
sg7
I00
sg8
g5
sg9
g5
sg11
g5
sg12
I0
sg13
I-153686
sg14
g5
sg15
g5
sg16
g5
sg17
g5
sg18
g5
sg19
g5
sg20
I372205
sg21
g5
sg22
g5
sg23
I0
sg24
I153686
sg25
g5
sg26
I0
sg27
g5
sg28
I0
sg29
I372205
ssS'COLWELL WESLEY'
p73
(dp74
g3
I1758
sg4
I27610
sg6
I16514
sg7
I01
sg8
I-144062
sg9
S'wes.colwell@enron.com'
p75
sg11
g5
sg12
F0.13651877133105803
sg13
g5
sg14
I1132
sg15
g5
sg16
I40
sg17
I101740
sg18
g5
sg19
I1200000
sg20
I698242
sg21
I240
sg22
I11
sg23
F0.05723256926201385
sg24
I698242
sg25
I288542
sg26
F0.13959955506117908
sg27
I1490344
sg28
F0.275
sg29
g5
ssS'MULLER MARK S'
p76
(dp77
g3
I136
sg4
I842924
sg6
g5
sg7
I00
sg8
I-719000
sg9
S's..muller@enron.com'
p78
sg11
I1725545
sg12
F0.08823529411764706
sg13
g5
sg14
I114
sg15
g5
sg16
I16
sg17
I947
sg18
g5
sg19
I1100000
sg20
I1416848
sg21
I12
sg22
I0
sg23
I0
sg24
I360528
sg25
I251654
sg26
F0.07894736842105263
sg27
I3202070
sg28
F0.0
sg29
I1056320
ssS'JACKSON CHARLENE R'
p79
(dp80
g3
I258
sg4
g5
sg6
I10181
sg7
I00
sg8
g5
sg9
S'charlene.jackson@enron.com'
p81
sg11
g5
sg12
F0.09689922480620156
sg13
g5
sg14
I117
sg15
g5
sg16
I56
sg17
I2435
sg18
g5
sg19
I250000
sg20
I725735
sg21
I25
sg22
I19
sg23
F0.0352823349205359
sg24
I540672
sg25
I288558
sg26
F0.14012738853503184
sg27
I551174
sg28
F0.3392857142857143
sg29
I185063
ssS'WESTFAHL RICHARD K'
p82
(dp83
g3
g5
sg4
g5
sg6
I51870
sg7
I00
sg8
I-10800
sg9
S'dick.westfahl@enron.com'
p84
sg11
I256191
sg12
I0
sg13
g5
sg14
g5
sg15
g5
sg16
g5
sg17
I401130
sg18
g5
sg19
g5
sg20
I384930
sg21
g5
sg22
g5
sg23
F0.8137236445783133
sg24
I384930
sg25
I63744
sg26
I0
sg27
I762135
sg28
I0
sg29
g5
ssS'WALTERS GARETH W'
p85
(dp86
g3
g5
sg4
I53625
sg6
I33785
sg7
I00
sg8
g5
sg9
g5
sg11
g5
sg12
I0
sg13
g5
sg14
g5
sg15
g5
sg16
g5
sg17
g5
sg18
g5
sg19
g5
sg20
I1030329
sg21
g5
sg22
g5
sg23
I0
sg24
g5
sg25
g5
sg26
I0
sg27
I87410
sg28
I0
sg29
I1030329
ssS'WALLS JR ROBERT H'
p87
(dp88
g3
I671
sg4
g5
sg6
I50936
sg7
I00
sg8
g5
sg9
S'rob.walls@enron.com'
p89
sg11
I540751
sg12
F0.02533532041728763
sg13
g5
sg14
I215
sg15
g5
sg16
I146
sg17
I2
sg18
g5
sg19
I850000
sg20
I5898997
sg21
I17
sg22
I0
sg23
F0.1426415115474767
sg24
I1552453
sg25
I357091
sg26
F0.0208078335373317
sg27
I1798780
sg28
F0.0
sg29
I4346544
ssS'KITCHEN LOUISE'
p90
(dp91
g3
I8305
sg4
g5
sg6
I5774
sg7
I00
sg8
g5
sg9
S'louise.kitchen@enron.com'
p92
sg11
g5
sg12
F0.030222757375075255
sg13
g5
sg14
I3669
sg15
g5
sg16
I1728
sg17
I93925
sg18
g5
sg19
I3100000
sg20
I547143
sg21
I251
sg22
I194
sg23
F0.021271579195555588
sg24
I466101
sg25
I271442
sg26
F0.044353633011063494
sg27
I3471141
sg28
F0.11226851851851852
sg29
I81042
ssS'CHAN RONNIE'
p93
(dp94
g3
g5
sg4
g5
sg6
g5
sg7
I00
sg8
I-98784
sg9
g5
sg11
g5
sg12
I0
sg13
I-32460
sg14
g5
sg15
g5
sg16
g5
sg17
g5
sg18
I98784
sg19
g5
sg20
g5
sg21
g5
sg22
g5
sg23
I0
sg24
I32460
sg25
g5
sg26
I0
sg27
g5
sg28
I0
sg29
g5
ssS'BELFER ROBERT'
p95
(dp96
g3
g5
sg4
I-102500
sg6
g5
sg7
I00
sg8
g5
sg9
g5
sg11
g5
sg12
I0
sg13
I44093
sg14
g5
sg15
g5
sg16
g5
sg17
g5
sg18
I3285
sg19
g5
sg20
I-44093
sg21
g5
sg22
g5
sg23
I0
sg24
g5
sg25
g5
sg26
I0
sg27
I102500
sg28
I0
sg29
I3285
ssS'SHANKMAN JEFFREY A'
p97
(dp98
g3
I3221
sg4
g5
sg6
I178979
sg7
I00
sg8
g5
sg9
S'jeffrey.shankman@enron.com'
p99
sg11
I554422
sg12
F0.029183483390251473
sg13
g5
sg14
I1730
sg15
g5
sg16
I2681
sg17
I1191
sg18
g5
sg19
I2000000
sg20
I2072035
sg21
I94
sg22
I83
sg23
F0.5885337542336655
sg24
I630137
sg25
I304110
sg26
F0.029989833954591663
sg27
I3038702
sg28
F0.030958597538232
sg29
I1441898
ssS'WODRASKA JOHN'
p100
(dp101
g3
g5
sg4
g5
sg6
g5
sg7
I00
sg8
g5
sg9
S'john.wodraska@enron.com'
p102
sg11
g5
sg12
I0
sg13
g5
sg14
g5
sg15
g5
sg16
g5
sg17
I189583
sg18
g5
sg19
g5
sg20
g5
sg21
g5
sg22
g5
sg23
I0
sg24
g5
sg25
g5
sg26
I0
sg27
I189583
sg28
I0
sg29
g5
ssS'BERGSIEKER RICHARD P'
p103
(dp104
g3
I383
sg4
g5
sg6
I59175
sg7
I00
sg8
I-485813
sg9
S'rick.bergsieker@enron.com'
p105
sg11
I180250
sg12
F0.010443864229765013
sg13
g5
sg14
I233
sg15
g5
sg16
I59
sg17
I427316
sg18
g5
sg19
I250000
sg20
I659249
sg21
I4
sg22
I0
sg23
F0.3148912846819425
sg24
I659249
sg25
I187922
sg26
F0.00904977375565611
sg27
I618850
sg28
F0.0
sg29
g5
ssS'URQUHART JOHN A'
p106
(dp107
g3
g5
sg4
g5
sg6
I228656
sg7
I00
sg8
I-36666
sg9
g5
sg11
g5
sg12
I0
sg13
g5
sg14
g5
sg15
g5
sg16
g5
sg17
g5
sg18
I36666
sg19
g5
sg20
g5
sg21
g5
sg22
g5
sg23
I0
sg24
g5
sg25
g5
sg26
I0
sg27
I228656
sg28
I0
sg29
g5
ssS'BIBI PHILIPPE A'
p108
(dp109
g3
I1607
sg4
g5
sg6
I38559
sg7
I00
sg8
g5
sg9
S'philippe.bibi@enron.com'
p110
sg11
I369721
sg12
F0.01431238332296204
sg13
g5
sg14
I1336
sg15
g5
sg16
I40
sg17
I425688
sg18
g5
sg19
I1000000
sg20
I1843816
sg21
I23
sg22
I8
sg23
F0.1804985371562317
sg24
I378082
sg25
I213625
sg26
F0.018822100789313904
sg27
I2047593
sg28
F0.2
sg29
I1465734
ssS'RIEKER PAULA H'
p111
(dp112
g3
I1328
sg4
I214678
sg6
I33271
sg7
I01
sg8
I-100000
sg9
S'paula.rieker@enron.com'
p113
sg11
g5
sg12
F0.02635542168674699
sg13
g5
sg14
I1258
sg15
g5
sg16
I82
sg17
I1950
sg18
g5
sg19
I700000
sg20
I1918887
sg21
I35
sg22
I48
sg23
F0.13351070019783226
sg24
I283649
sg25
I249201
sg26
F0.058865248226950356
sg27
I1099100
sg28
F0.5853658536585366
sg29
I1635238
ssS'WHALEY DAVID A'
p114
(dp115
g3
g5
sg4
g5
sg6
g5
sg7
I00
sg8
g5
sg9
g5
sg11
g5
sg12
I0
sg13
g5
sg14
g5
sg15
g5
sg16
g5
sg17
g5
sg18
g5
sg19
g5
sg20
I98718
sg21
g5
sg22
g5
sg23
I0
sg24
g5
sg25
g5
sg26
I0
sg27
g5
sg28
I0
sg29
I98718
ssS'BECK SALLY W'
p116
(dp117
g3
I7315
sg4
g5
sg6
I37172
sg7
I00
sg8
g5
sg9
S'sally.beck@enron.com'
p118
sg11
g5
sg12
F0.01968557758031442
sg13
g5
sg14
I2639
sg15
g5
sg16
I4343
sg17
I566
sg18
g5
sg19
I700000
sg20
I126027
sg21
I144
sg22
I386
sg23
F0.1606881943543855
sg24
I126027
sg25
I231330
sg26
F0.0454623434551381
sg27
I969068
sg28
F0.08887865530739121
sg29
g5
ssS'HAUG DAVID L'
p119
(dp120
g3
I573
sg4
g5
sg6
I475
sg7
I00
sg8
g5
sg9
S'david.haug@enron.com'
p121
sg11
g5
sg12
F0.006980802792321117
sg13
g5
sg14
I471
sg15
g5
sg16
I19
sg17
g5
sg18
g5
sg19
g5
sg20
I2217299
sg21
I4
sg22
I7
sg23
I0
sg24
I2217299
sg25
g5
sg26
F0.018581081081081082
sg27
I475
sg28
F0.3684210526315789
sg29
g5
ssS'ECHOLS JOHN B'
p122
(dp123
g3
g5
sg4
g5
sg6
I21530
sg7
I00
sg8
g5
sg9
S'john.echols@enron.com'
p124
sg11
I2234774
sg12
I0
sg13
g5
sg14
g5
sg15
g5
sg16
g5
sg17
I53775
sg18
g5
sg19
I200000
sg20
I1008941
sg21
g5
sg22
g5
sg23
F0.11813767181541332
sg24
I407503
sg25
I182245
sg26
I0
sg27
I2692324
sg28
I0
sg29
I601438
ssS'MENDELSOHN JOHN'
p125
(dp126
g3
g5
sg4
g5
sg6
I148
sg7
I00
sg8
I-103750
sg9
g5
sg11
g5
sg12
I0
sg13
g5
sg14
g5
sg15
g5
sg16
g5
sg17
g5
sg18
I103750
sg19
g5
sg20
g5
sg21
g5
sg22
g5
sg23
I0
sg24
g5
sg25
g5
sg26
I0
sg27
I148
sg28
I0
sg29
g5
ssS'HICKERSON GARY J'
p127
(dp128
g3
I1320
sg4
g5
sg6
I98849
sg7
I00
sg8
g5
sg9
S'gary.hickerson@enron.com'
p129
sg11
I69223
sg12
F0.030303030303030304
sg13
g5
sg14
I900
sg15
g5
sg16
I27
sg17
I1936
sg18
g5
sg19
I1700000
sg20
I441096
sg21
I40
sg22
I1
sg23
F0.4667356035280564
sg24
I441096
sg25
I211788
sg26
F0.030438010393466965
sg27
I2081796
sg28
F0.037037037037037035
sg29
g5
ssS'CLINE KENNETH W'
p130
(dp131
g3
g5
sg4
g5
sg6
g5
sg7
I00
sg8
g5
sg9
g5
sg11
g5
sg12
I0
sg13
I-472568
sg14
g5
sg15
g5
sg16
g5
sg17
g5
sg18
g5
sg19
g5
sg20
I189518
sg21
g5
sg22
g5
sg23
I0
sg24
I662086
sg25
g5
sg26
I0
sg27
g5
sg28
I0
sg29
g5
ssS'LEWIS RICHARD'
p132
(dp133
g3
I952
sg4
g5
sg6
g5
sg7
I00
sg8
g5
sg9
S'richard.lewis@enron.com'
p134
sg11
g5
sg12
F0.01050420168067227
sg13
g5
sg14
I739
sg15
g5
sg16
I26
sg17
g5
sg18
g5
sg19
g5
sg20
I850477
sg21
I10
sg22
I0
sg23
I0
sg24
g5
sg25
g5
sg26
F0.010224948875255624
sg27
g5
sg28
F0.0
sg29
I850477
ssS'HAYES ROBERT E'
p135
(dp136
g3
I504
sg4
I7961
sg6
g5
sg7
I00
sg8
g5
sg9
S'robert.hayes@enron.com'
p137
sg11
g5
sg12
F0.031746031746031744
sg13
g5
sg14
I50
sg15
g5
sg16
I12
sg17
g5
sg18
g5
sg19
g5
sg20
I151418
sg21
I16
sg22
I0
sg23
I0
sg24
I151418
sg25
g5
sg26
F0.031007751937984496
sg27
I7961
sg28
F0.0
sg29
g5
ssS'MCCARTY DANNY J'
p138
(dp139
g3
I1433
sg4
g5
sg6
g5
sg7
I00
sg8
g5
sg9
S'danny.mccarty@enron.com'
p140
sg11
g5
sg12
F0.017445917655268667
sg13
g5
sg14
I508
sg15
g5
sg16
I215
sg17
g5
sg18
g5
sg19
g5
sg20
I758931
sg21
I25
sg22
I2
sg23
I0
sg24
I94556
sg25
g5
sg26
F0.016383495145631068
sg27
g5
sg28
F0.009302325581395349
sg29
I664375
ssS'KOPPER MICHAEL J'
p141
(dp142
g3
g5
sg4
g5
sg6
I118134
sg7
I01
sg8
g5
sg9
S'michael.kopper@enron.com'
p143
sg11
I602671
sg12
I0
sg13
g5
sg14
g5
sg15
g5
sg16
g5
sg17
I907502
sg18
g5
sg19
I800000
sg20
I985032
sg21
g5
sg22
g5
sg23
F0.5266668152738458
sg24
I985032
sg25
I224305
sg26
I0
sg27
I2652612
sg28
I0
sg29
g5
ssS'LEFF DANIEL P'
p144
(dp145
g3
I2822
sg4
g5
sg6
g5
sg7
I00
sg8
g5
sg9
S'dan.leff@enron.com'
p146
sg11
I1387399
sg12
F0.02374202693125443
sg13
g5
sg14
I2672
sg15
g5
sg16
I63
sg17
I3083
sg18
g5
sg19
I1000000
sg20
I360528
sg21
I67
sg22
I14
sg23
I0
sg24
I360528
sg25
I273746
sg26
F0.028076256499133447
sg27
I2664228
sg28
F0.2222222222222222
sg29
g5
ssS'LAVORATO JOHN J'
p147
(dp148
g3
I7259
sg4
g5
sg6
I49537
sg7
I00
sg8
g5
sg9
S'john.lavorato@enron.com'
p149
sg11
I2035380
sg12
F0.07273729163796666
sg13
g5
sg14
I3962
sg15
g5
sg16
I2585
sg17
I1552
sg18
g5
sg19
I8000000
sg20
I5167144
sg21
I528
sg22
I411
sg23
F0.1460028058758341
sg24
I1008149
sg25
I339288
sg26
F0.09538805363673304
sg27
I10425757
sg28
F0.15899419729206962
sg29
I4158995
ssS'BERBERIAN DAVID'
p150
(dp151
g3
g5
sg4
g5
sg6
I11892
sg7
I00
sg8
g5
sg9
S'david.berberian@enron.com'
p152
sg11
g5
sg12
I0
sg13
g5
sg14
g5
sg15
g5
sg16
g5
sg17
g5
sg18
g5
sg19
g5
sg20
I2493616
sg21
g5
sg22
g5
sg23
F0.054907610050696734
sg24
I869220
sg25
I216582
sg26
I0
sg27
I228474
sg28
I0
sg29
I1624396
ssS'DETMERING TIMOTHY J'
p153
(dp154
g3
g5
sg4
I875307
sg6
I52255
sg7
I00
sg8
I-775241
sg9
S'timothy.detmering@enron.com'
p155
sg11
I415657
sg12
I0
sg13
I-315068
sg14
g5
sg15
g5
sg16
g5
sg17
I1105
sg18
g5
sg19
I425000
sg20
I2027865
sg21
g5
sg22
g5
sg23
F0.24824228028503562
sg24
I315068
sg25
I210500
sg26
I0
sg27
I1204583
sg28
I0
sg29
I2027865
ssS'WAKEHAM JOHN'
p156
(dp157
g3
g5
sg4
g5
sg6
I103773
sg7
I00
sg8
g5
sg9
g5
sg11
g5
sg12
I0
sg13
g5
sg14
g5
sg15
g5
sg16
g5
sg17
g5
sg18
I109298
sg19
g5
sg20
g5
sg21
g5
sg22
g5
sg23
I0
sg24
g5
sg25
g5
sg26
I0
sg27
I213071
sg28
I0
sg29
g5
ssS'POWERS WILLIAM'
p158
(dp159
g3
I653
sg4
g5
sg6
g5
sg7
I00
sg8
I-17500
sg9
S'ken.powers@enron.com'
p160
sg11
g5
sg12
F0.0
sg13
g5
sg14
I12
sg15
g5
sg16
I26
sg17
g5
sg18
I17500
sg19
g5
sg20
g5
sg21
I0
sg22
I0
sg23
I0
sg24
g5
sg25
g5
sg26
F0.0
sg27
g5
sg28
F0.0
sg29
g5
ssS'GOLD JOSEPH'
p161
(dp162
g3
g5
sg4
g5
sg6
g5
sg7
I00
sg8
g5
sg9
S'joe.gold@enron.com'
p163
sg11
I304805
sg12
I0
sg13
g5
sg14
g5
sg15
g5
sg16
g5
sg17
I819288
sg18
g5
sg19
I750000
sg20
I877611
sg21
g5
sg22
g5
sg23
I0
sg24
I441096
sg25
I272880
sg26
I0
sg27
I2146973
sg28
I0
sg29
I436515
ssS'BANNANTINE JAMES M'
p164
(dp165
g3
I566
sg4
g5
sg6
I56301
sg7
I00
sg8
I-5104
sg9
S'james.bannantine@enron.com'
p166
sg11
g5
sg12
F0.06890459363957598
sg13
I-560222
sg14
I465
sg15
g5
sg16
I29
sg17
I864523
sg18
g5
sg19
g5
sg20
I5243487
sg21
I39
sg22
I0
sg23
F118.03144654088051
sg24
I1757552
sg25
I477
sg26
F0.06554621848739496
sg27
I916197
sg28
F0.0
sg29
I4046157
ssS'DUNCAN JOHN H'
p167
(dp168
g3
g5
sg4
g5
sg6
g5
sg7
I00
sg8
I-25000
sg9
g5
sg11
g5
sg12
I0
sg13
g5
sg14
g5
sg15
g5
sg16
g5
sg17
g5
sg18
I102492
sg19
g5
sg20
I371750
sg21
g5
sg22
g5
sg23
I0
sg24
g5
sg25
g5
sg26
I0
sg27
I77492
sg28
I0
sg29
I371750
ssS'SHAPIRO RICHARD S'
p169
(dp170
g3
I15149
sg4
g5
sg6
I137767
sg7
I00
sg8
g5
sg9
S'richard.shapiro@enron.com'
p171
sg11
g5
sg12
F0.0048848108786058485
sg13
g5
sg14
I4527
sg15
g5
sg16
I1215
sg17
I705
sg18
g5
sg19
I650000
sg20
I987001
sg21
I74
sg22
I65
sg23
F0.5120003270451471
sg24
I379164
sg25
I269076
sg26
F0.00849425568320704
sg27
I1057548
sg28
F0.053497942386831275
sg29
I607837
ssS'SHERRIFF JOHN R'
p172
(dp173
g3
I3187
sg4
g5
sg6
g5
sg7
I00
sg8
g5
sg9
S'john.sherriff@enron.com'
p174
sg11
I554422
sg12
F0.008785691873235017
sg13
g5
sg14
I2103
sg15
g5
sg16
I92
sg17
I1852186
sg18
g5
sg19
I1500000
sg20
I3128982
sg21
I28
sg22
I23
sg23
I0
sg24
I1293424
sg25
I428780
sg26
F0.01555352241537054
sg27
I4335388
sg28
F0.25
sg29
I1835558
ssS'SHELBY REX'
p175
(dp176
g3
I225
sg4
g5
sg6
I22884
sg7
I01
sg8
I-4167
sg9
S'rex.shelby@enron.com'
p177
sg11
g5
sg12
F0.057777777777777775
sg13
g5
sg14
I91
sg15
g5
sg16
I39
sg17
I1573324
sg18
g5
sg19
I200000
sg20
I2493616
sg21
I13
sg22
I14
sg23
F0.10802288476426049
sg24
I869220
sg25
I211844
sg26
F0.10227272727272728
sg27
I2003885
sg28
F0.358974358974359
sg29
I1624396
ssS'LEMAISTRE CHARLES'
p178
(dp179
g3
g5
sg4
g5
sg6
g5
sg7
I00
sg8
I-25000
sg9
g5
sg11
g5
sg12
I0
sg13
g5
sg14
g5
sg15
g5
sg16
g5
sg17
g5
sg18
I112492
sg19
g5
sg20
I412878
sg21
g5
sg22
g5
sg23
I0
sg24
g5
sg25
g5
sg26
I0
sg27
I87492
sg28
I0
sg29
I412878
ssS'DEFFNER JOSEPH M'
p180
(dp181
g3
I714
sg4
g5
sg6
I41626
sg7
I00
sg8
g5
sg9
S'joseph.deffner@enron.com'
p182
sg11
I335349
sg12
F0.16106442577030813
sg13
g5
sg14
I552
sg15
g5
sg16
I74
sg17
I25553
sg18
g5
sg19
I600000
sg20
I159211
sg21
I115
sg22
I4
sg23
F0.20194934043595753
sg24
I141833
sg25
I206121
sg26
F0.15101522842639595
sg27
I1208649
sg28
F0.05405405405405406
sg29
I17378
ssS'KISHKILL JOSEPH G'
p183
(dp184
g3
g5
sg4
g5
sg6
I116335
sg7
I00
sg8
I-51042
sg9
S'joe.kishkill@enron.com'
p185
sg11
g5
sg12
I0
sg13
g5
sg14
g5
sg15
g5
sg16
g5
sg17
I465357
sg18
g5
sg19
g5
sg20
I1034346
sg21
g5
sg22
g5
sg23
F0.6676480378315715
sg24
I1034346
sg25
I174246
sg26
I0
sg27
I704896
sg28
I0
sg29
g5
ssS'WHALLEY LAWRENCE G'
p186
(dp187
g3
I6019
sg4
g5
sg6
I57838
sg7
I00
sg8
g5
sg9
S'greg.whalley@enron.com'
p188
sg11
I808346
sg12
F0.03090214321315833
sg13
g5
sg14
I3920
sg15
g5
sg16
I556
sg17
I301026
sg18
g5
sg19
I3000000
sg20
I6079137
sg21
I186
sg22
I24
sg23
F0.11332695879803434
sg24
I2796177
sg25
I510364
sg26
F0.03193916349809886
sg27
I4677574
sg28
F0.04316546762589928
sg29
I3282960
ssS'MCCONNELL MICHAEL S'
p189
(dp190
g3
I3329
sg4
g5
sg6
I81364
sg7
I00
sg8
g5
sg9
S'mike.mcconnell@enron.com'
p191
sg11
I554422
sg12
F0.02763592670471613
sg13
g5
sg14
I2189
sg15
g5
sg16
I2742
sg17
I540
sg18
g5
sg19
I1100000
sg20
I3101279
sg21
I92
sg22
I194
sg23
F0.22289186331286057
sg24
I1478269
sg25
I365038
sg26
F0.047109207708779445
sg27
I2101364
sg28
F0.07075127644055434
sg29
I1623010
ssS'PIRO JIM'
p192
(dp193
g3
I58
sg4
g5
sg6
g5
sg7
I00
sg8
g5
sg9
S'jim.piro@enron.com'
p194
sg11
g5
sg12
F0.0
sg13
g5
sg14
I3
sg15
g5
sg16
I16
sg17
g5
sg18
g5
sg19
g5
sg20
I47304
sg21
I0
sg22
I1
sg23
I0
sg24
I47304
sg25
g5
sg26
F0.013513513513513514
sg27
g5
sg28
F0.0625
sg29
g5
ssS'DELAINEY DAVID W'
p195
(dp196
g3
I3093
sg4
g5
sg6
I86174
sg7
I01
sg8
g5
sg9
S'david.delainey@enron.com'
p197
sg11
I1294981
sg12
F0.02133850630455868
sg13
g5
sg14
I2097
sg15
g5
sg16
I3069
sg17
I1661
sg18
g5
sg19
I3000000
sg20
I3614261
sg21
I66
sg22
I609
sg23
F0.23598776436824104
sg24
I1323148
sg25
I365163
sg26
F0.10954235637779941
sg27
I4747979
sg28
F0.198435972629521
sg29
I2291113
ssS'SULLIVAN-SHAKLOVITZ COLLEEN'
p198
(dp199
g3
g5
sg4
I181993
sg6
g5
sg7
I00
sg8
g5
sg9
g5
sg11
I554422
sg12
I0
sg13
g5
sg14
g5
sg15
g5
sg16
g5
sg17
I162
sg18
g5
sg19
I100000
sg20
I1362375
sg21
g5
sg22
g5
sg23
I0
sg24
g5
sg25
I162779
sg26
I0
sg27
I999356
sg28
I0
sg29
I1362375
ssS'WROBEL BRUCE'
p200
(dp201
g3
g5
sg4
g5
sg6
g5
sg7
I00
sg8
g5
sg9
g5
sg11
g5
sg12
I0
sg13
g5
sg14
g5
sg15
g5
sg16
g5
sg17
g5
sg18
g5
sg19
g5
sg20
I139130
sg21
g5
sg22
g5
sg23
I0
sg24
g5
sg25
g5
sg26
I0
sg27
g5
sg28
I0
sg29
I139130
ssS'LINDHOLM TOD A'
p202
(dp203
g3
g5
sg4
I204075
sg6
I57727
sg7
I00
sg8
g5
sg9
S'tod.lindholm@enron.com'
p204
sg11
I175000
sg12
I0
sg13
g5
sg14
g5
sg15
g5
sg16
g5
sg17
I2630
sg18
g5
sg19
I200000
sg20
I3064208
sg21
g5
sg22
g5
sg23
F0.2441331827774183
sg24
I514847
sg25
I236457
sg26
I0
sg27
I875889
sg28
I0
sg29
I2549361
ssS'MEYER JEROME J'
p205
(dp206
g3
g5
sg4
g5
sg6
I2151
sg7
I00
sg8
I-38346
sg9
g5
sg11
g5
sg12
I0
sg13
g5
sg14
g5
sg15
g5
sg16
g5
sg17
g5
sg18
I38346
sg19
g5
sg20
g5
sg21
g5
sg22
g5
sg23
I0
sg24
g5
sg25
g5
sg26
I0
sg27
I2151
sg28
I0
sg29
g5
ssS'LAY KENNETH L'
p207
(dp208
g3
I4273
sg4
I202911
sg6
I99832
sg7
I01
sg8
I-300000
sg9
S'kenneth.lay@enron.com'
p209
sg11
I3600000
sg12
F0.028785396676807865
sg13
g5
sg14
I2411
sg15
I81525000
sg16
I36
sg17
I10359729
sg18
g5
sg19
I7000000
sg20
I49110078
sg21
I123
sg22
I16
sg23
F0.09309898808285952
sg24
I14761694
sg25
I1072321
sg26
F0.03225806451612903
sg27
I103559793
sg28
F0.4444444444444444
sg29
I34348384
ssS'BUTTS ROBERT H'
p210
(dp211
g3
g5
sg4
g5
sg6
I9410
sg7
I00
sg8
I-75000
sg9
S'bob.butts@enron.com'
p212
sg11
I175000
sg12
I0
sg13
g5
sg14
g5
sg15
g5
sg16
g5
sg17
I150656
sg18
g5
sg19
I750000
sg20
I417619
sg21
g5
sg22
g5
sg23
F0.035982502026644644
sg24
I417619
sg25
I261516
sg26
I0
sg27
I1271582
sg28
I0
sg29
g5
ssS'OLSON CINDY K'
p213
(dp214
g3
I1184
sg4
I77716
sg6
I63791
sg7
I00
sg8
g5
sg9
S'cindy.olson@enron.com'
p215
sg11
I100000
sg12
F0.016891891891891893
sg13
g5
sg14
I856
sg15
g5
sg16
I52
sg17
I972
sg18
g5
sg19
I750000
sg20
I2606763
sg21
I20
sg22
I15
sg23
F0.19384765921757152
sg24
I969729
sg25
I329078
sg26
F0.02831715210355987
sg27
I1321557
sg28
F0.28846153846153844
sg29
I1637034
ssS'MCDONALD REBECCA'
p216
(dp217
g3
I894
sg4
g5
sg6
g5
sg7
I00
sg8
g5
sg9
S'rebecca.mcdonald@enron.com'
p218
sg11
g5
sg12
F0.06040268456375839
sg13
g5
sg14
I720
sg15
g5
sg16
I13
sg17
g5
sg18
g5
sg19
g5
sg20
I1691366
sg21
I54
sg22
I1
sg23
I0
sg24
I934065
sg25
g5
sg26
F0.06063947078280044
sg27
g5
sg28
F0.07692307692307693
sg29
I757301
ssS'CUMBERLAND MICHAEL S'
p219
(dp220
g3
g5
sg4
g5
sg6
I22344
sg7
I00
sg8
g5
sg9
g5
sg11
I275000
sg12
I0
sg13
g5
sg14
g5
sg15
g5
sg16
g5
sg17
I713
sg18
g5
sg19
I325000
sg20
I207940
sg21
g5
sg22
g5
sg23
F0.12084435286291435
sg24
I207940
sg25
I184899
sg26
I0
sg27
I807956
sg28
I0
sg29
g5
ssS'GAHN ROBERT S'
p221
(dp222
g3
g5
sg4
I73122
sg6
I50080
sg7
I00
sg8
I-1042
sg9
g5
sg11
g5
sg12
I0
sg13
g5
sg14
g5
sg15
g5
sg16
g5
sg17
I76547
sg18
g5
sg19
I509870
sg20
I318607
sg21
g5
sg22
g5
sg23
F0.26082246573059453
sg24
I235370
sg25
I192008
sg26
I0
sg27
I900585
sg28
I0
sg29
I83237
ssS'MCCLELLAN GEORGE'
p223
(dp224
g3
I1744
sg4
g5
sg6
I228763
sg7
I00
sg8
I-125000
sg9
S'george.mcclellan@enron.com'
p225
sg11
g5
sg12
F0.02981651376146789
sg13
g5
sg14
I1469
sg15
g5
sg16
I49
sg17
I51587
sg18
g5
sg19
I900000
sg20
I947861
sg21
I52
sg22
I0
sg23
F0.8684575172827461
sg24
I441096
sg25
I263413
sg26
F0.029001673173452314
sg27
I1318763
sg28
F0.0
sg29
I506765
ssS'HERMANN ROBERT J'
p226
(dp227
g3
g5
sg4
g5
sg6
I48357
sg7
I00
sg8
I-280000
sg9
S'robert.hermann@enron.com'
p228
sg11
I150000
sg12
I0
sg13
g5
sg14
g5
sg15
g5
sg16
g5
sg17
I416441
sg18
g5
sg19
I700000
sg20
I668132
sg21
g5
sg22
g5
sg23
F0.1841028237703826
sg24
I480632
sg25
I262663
sg26
I0
sg27
I1297461
sg28
I0
sg29
I187500
ssS'SCRIMSHAW MATTHEW'
p229
(dp230
g3
g5
sg4
g5
sg6
g5
sg7
I00
sg8
g5
sg9
S'matthew.scrimshaw@enron.com'
p231
sg11
g5
sg12
I0
sg13
g5
sg14
g5
sg15
g5
sg16
g5
sg17
g5
sg18
g5
sg19
g5
sg20
I759557
sg21
g5
sg22
g5
sg23
I0
sg24
g5
sg25
g5
sg26
I0
sg27
g5
sg28
I0
sg29
I759557
ssS'GATHMANN WILLIAM D'
p232
(dp233
g3
g5
sg4
g5
sg6
g5
sg7
I00
sg8
g5
sg9
g5
sg11
g5
sg12
I0
sg13
I-72419
sg14
g5
sg15
g5
sg16
g5
sg17
g5
sg18
g5
sg19
g5
sg20
I1945360
sg21
g5
sg22
g5
sg23
I0
sg24
I264013
sg25
g5
sg26
I0
sg27
g5
sg28
I0
sg29
I1753766
ssS'HAEDICKE MARK E'
p234
(dp235
g3
I4009
sg4
I2157527
sg6
I76169
sg7
I00
sg8
I-934484
sg9
S'mark.haedicke@enron.com'
p236
sg11
I983346
sg12
F0.04489897730107259
sg13
I-329825
sg14
I1847
sg15
g5
sg16
I1941
sg17
I52382
sg18
g5
sg19
I1150000
sg20
I803094
sg21
I180
sg22
I61
sg23
F0.2035923822251921
sg24
I524169
sg25
I374125
sg26
F0.04050420168067227
sg27
I3859065
sg28
F0.03142709943328181
sg29
I608750
ssS'BOWEN JR RAYMOND M'
p237
(dp238
g3
I1858
sg4
g5
sg6
I65907
sg7
I01
sg8
I-833
sg9
S'raymond.bowen@enron.com'
p239
sg11
I974293
sg12
F0.07534983853606028
sg13
g5
sg14
I1593
sg15
g5
sg16
I27
sg17
I1621
sg18
g5
sg19
I1350000
sg20
I252055
sg21
I140
sg22
I15
sg23
F0.2365641185781817
sg24
I252055
sg25
I278601
sg26
F0.08222811671087533
sg27
I2669589
sg28
F0.5555555555555556
sg29
g5
ssS'GILLIS JOHN'
p240
(dp241
g3
g5
sg4
g5
sg6
g5
sg7
I00
sg8
g5
sg9
g5
sg11
g5
sg12
I0
sg13
g5
sg14
g5
sg15
g5
sg16
g5
sg17
g5
sg18
g5
sg19
g5
sg20
I85641
sg21
g5
sg22
g5
sg23
I0
sg24
I75838
sg25
g5
sg26
I0
sg27
g5
sg28
I0
sg29
I9803
ssS'FITZGERALD JAY L'
p242
(dp243
g3
I936
sg4
g5
sg6
I23870
sg7
I00
sg8
g5
sg9
S'jay.fitzgerald@enron.com'
p244
sg11
I556416
sg12
F0.0010683760683760685
sg13
g5
sg14
I723
sg15
g5
sg16
I16
sg17
I285414
sg18
g5
sg19
I350000
sg20
I1621236
sg21
I1
sg22
I8
sg23
F0.11985518962426628
sg24
I956775
sg25
I199157
sg26
F0.009453781512605041
sg27
I1414857
sg28
F0.5
sg29
I664461
ssS'MORAN MICHAEL P'
p245
(dp246
g3
I672
sg4
g5
sg6
g5
sg7
I00
sg8
g5
sg9
S'michael.moran@enron.com'
p247
sg11
g5
sg12
F0.0
sg13
g5
sg14
I127
sg15
g5
sg16
I19
sg17
g5
sg18
g5
sg19
g5
sg20
I221141
sg21
I0
sg22
I0
sg23
I0
sg24
I161602
sg25
g5
sg26
F0.0
sg27
g5
sg28
F0.0
sg29
I59539
ssS'REDMOND BRIAN L'
p248
(dp249
g3
I1671
sg4
g5
sg6
I14689
sg7
I00
sg8
g5
sg9
S'brian.redmond@enron.com'
p250
sg11
g5
sg12
F0.12208258527827648
sg13
g5
sg14
I1063
sg15
g5
sg16
I221
sg17
g5
sg18
g5
sg19
g5
sg20
I7890324
sg21
I204
sg22
I49
sg23
F0.15168318876497316
sg24
I381285
sg25
I96840
sg26
F0.13372093023255813
sg27
I111529
sg28
F0.22171945701357465
sg29
I7509039
ssS'BAZELIDES PHILIP J'
p251
(dp252
g3
g5
sg4
I684694
sg6
g5
sg7
I00
sg8
g5
sg9
g5
sg11
I93750
sg12
I0
sg13
g5
sg14
g5
sg15
g5
sg16
g5
sg17
I874
sg18
g5
sg19
g5
sg20
I1599641
sg21
g5
sg22
g5
sg23
I0
sg24
g5
sg25
I80818
sg26
I0
sg27
I860136
sg28
I0
sg29
I1599641
ssS'BELDEN TIMOTHY N'
p253
(dp254
g3
I7991
sg4
I2144013
sg6
I17355
sg7
I01
sg8
I-2334434
sg9
S'tim.belden@enron.com'
p255
sg11
g5
sg12
F0.028532098610937303
sg13
g5
sg14
I5521
sg15
g5
sg16
I484
sg17
I210698
sg18
g5
sg19
I5249999
sg20
I1110705
sg21
I228
sg22
I108
sg23
F0.08109850980612059
sg24
I157569
sg25
I213999
sg26
F0.03964601769911504
sg27
I5501630
sg28
F0.2231404958677686
sg29
I953136
ssS'DURAN WILLIAM D'
p256
(dp257
g3
I904
sg4
g5
sg6
I25785
sg7
I00
sg8
g5
sg9
S'w.duran@enron.com'
p258
sg11
I1105218
sg12
F0.1172566371681416
sg13
g5
sg14
I599
sg15
g5
sg16
I12
sg17
I1568
sg18
g5
sg19
I750000
sg20
I1640910
sg21
I106
sg22
I3
sg23
F0.1223824350236364
sg24
I189041
sg25
I210692
sg26
F0.11899563318777293
sg27
I2093263
sg28
F0.25
sg29
I1451869
ssS'THORN TERENCE H'
p259
(dp260
g3
I266
sg4
I16586
sg6
I46145
sg7
I00
sg8
g5
sg9
S'terence.thorn@enron.com'
p261
sg11
I200000
sg12
F0.0
sg13
g5
sg14
I73
sg15
g5
sg16
I41
sg17
I426629
sg18
g5
sg19
g5
sg20
I4817796
sg21
I0
sg22
I0
sg23
F0.20777332018568798
sg24
I365320
sg25
I222093
sg26
F0.0
sg27
I911453
sg28
F0.0
sg29
I4452476
ssS'FASTOW ANDREW S'
p262
(dp263
g3
g5
sg4
g5
sg6
I55921
sg7
I01
sg8
I-1386055
sg9
S'andrew.fastow@enron.com'
p264
sg11
I1736055
sg12
I0
sg13
g5
sg14
g5
sg15
g5
sg16
g5
sg17
I277464
sg18
g5
sg19
I1300000
sg20
I1794412
sg21
g5
sg22
g5
sg23
F0.12689188514583682
sg24
I1794412
sg25
I440698
sg26
I0
sg27
I2424083
sg28
I0
sg29
g5
ssS'FOY JOE'
p265
(dp266
g3
I57
sg4
I181755
sg6
g5
sg7
I00
sg8
g5
sg9
S'tracy.foy@enron.com'
p267
sg11
g5
sg12
F0.0
sg13
g5
sg14
I2
sg15
g5
sg16
I13
sg17
g5
sg18
g5
sg19
g5
sg20
I343434
sg21
I0
sg22
I0
sg23
I0
sg24
g5
sg25
g5
sg26
F0.0
sg27
I181755
sg28
F0.0
sg29
I343434
ssS'CALGER CHRISTOPHER F'
p268
(dp269
g3
I2598
sg4
g5
sg6
I35818
sg7
I01
sg8
I-262500
sg9
S'christopher.calger@enron.com'
p270
sg11
I375304
sg12
F0.07659738260200154
sg13
g5
sg14
I2188
sg15
g5
sg16
I144
sg17
I486
sg18
g5
sg19
I1250000
sg20
I126027
sg21
I199
sg22
I25
sg23
F0.14912423133449076
sg24
I126027
sg25
I240189
sg26
F0.08169219547775347
sg27
I1639297
sg28
F0.1736111111111111
sg29
g5
ssS'RICE KENNETH D'
p271
(dp272
g3
I905
sg4
g5
sg6
I46950
sg7
I01
sg8
I-3504386
sg9
S'ken.rice@enron.com'
p273
sg11
I1617011
sg12
F0.04640883977900553
sg13
g5
sg14
I864
sg15
g5
sg16
I18
sg17
I174839
sg18
g5
sg19
I1750000
sg20
I22542539
sg21
I42
sg22
I4
sg23
F0.11161669471942487
sg24
I2748364
sg25
I420636
sg26
F0.04983748645720477
sg27
I505050
sg28
F0.2222222222222222
sg29
I19794175
ssS'KAMINSKI WINCENTY J'
p274
(dp275
g3
I4607
sg4
g5
sg6
I83585
sg7
I00
sg8
g5
sg9
S'vince.kaminski@enron.com'
p276
sg11
I323466
sg12
F0.008899500759713479
sg13
g5
sg14
I583
sg15
g5
sg16
I14368
sg17
I4669
sg18
g5
sg19
I400000
sg20
I976037
sg21
I41
sg22
I171
sg23
F0.3038338646533455
sg24
I126027
sg25
I275101
sg26
F0.011172595520421607
sg27
I1086821
sg28
F0.011901447661469933
sg29
I850010
ssS'COX DAVID'
p277
(dp278
g3
I102
sg4
g5
sg6
I27861
sg7
I00
sg8
I-41250
sg9
S'chip.cox@enron.com'
p279
sg11
g5
sg12
F0.0
sg13
g5
sg14
I71
sg15
g5
sg16
I33
sg17
I494
sg18
g5
sg19
I800000
sg20
I495633
sg21
I0
sg22
I4
sg23
F0.08864799165096982
sg24
I378082
sg25
I314288
sg26
F0.02962962962962963
sg27
I1101393
sg28
F0.12121212121212122
sg29
I117551
ssS'OVERDYKE JR JERE C'
p280
(dp281
g3
g5
sg4
g5
sg6
I18834
sg7
I00
sg8
g5
sg9
S'jere.overdyke@enron.com'
p282
sg11
I135836
sg12
I0
sg13
g5
sg14
g5
sg15
g5
sg16
g5
sg17
I176
sg18
g5
sg19
g5
sg20
I7307594
sg21
g5
sg22
g5
sg23
F0.19837583341232976
sg24
I2041016
sg25
I94941
sg26
I0
sg27
I249787
sg28
I0
sg29
I5266578
ssS'PEREIRA PAULO V. FERRAZ'
p283
(dp284
g3
g5
sg4
g5
sg6
I27942
sg7
I00
sg8
I-101250
sg9
g5
sg11
g5
sg12
I0
sg13
g5
sg14
g5
sg15
g5
sg16
g5
sg17
g5
sg18
I101250
sg19
g5
sg20
g5
sg21
g5
sg22
g5
sg23
I0
sg24
g5
sg25
g5
sg26
I0
sg27
I27942
sg28
I0
sg29
g5
ssS'STABLER FRANK'
p285
(dp286
g3
g5
sg4
g5
sg6
I16514
sg7
I00
sg8
g5
sg9
S'frank.stabler@enron.com'
p287
sg11
g5
sg12
I0
sg13
g5
sg14
g5
sg15
g5
sg16
g5
sg17
I356071
sg18
g5
sg19
I500000
sg20
I511734
sg21
g5
sg22
g5
sg23
F0.06895140750390394
sg24
I511734
sg25
I239502
sg26
I0
sg27
I1112087
sg28
I0
sg29
g5
ssS'SKILLING JEFFREY K'
p288
(dp289
g3
I3627
sg4
g5
sg6
I29336
sg7
I01
sg8
g5
sg9
S'jeff.skilling@enron.com'
p290
sg11
I1920000
sg12
F0.0242624758753791
sg13
g5
sg14
I2042
sg15
g5
sg16
I108
sg17
I22122
sg18
g5
sg19
I5600000
sg20
I26093672
sg21
I88
sg22
I30
sg23
F0.026398910064089526
sg24
I6843672
sg25
I1111258
sg26
F0.03159303882195449
sg27
I8682716
sg28
F0.2777777777777778
sg29
I19250000
ssS'BLAKE JR. NORMAN P'
p291
(dp292
g3
g5
sg4
g5
sg6
I1279
sg7
I00
sg8
I-113784
sg9
g5
sg11
g5
sg12
I0
sg13
g5
sg14
g5
sg15
g5
sg16
g5
sg17
g5
sg18
I113784
sg19
g5
sg20
g5
sg21
g5
sg22
g5
sg23
I0
sg24
g5
sg25
g5
sg26
I0
sg27
I1279
sg28
I0
sg29
g5
ssS'SHERRICK JEFFREY B'
p293
(dp294
g3
I613
sg4
g5
sg6
g5
sg7
I00
sg8
g5
sg9
S'jeffrey.sherrick@enron.com'
p295
sg11
g5
sg12
F0.0636215334420881
sg13
g5
sg14
I583
sg15
g5
sg16
I25
sg17
g5
sg18
g5
sg19
g5
sg20
I1832468
sg21
I39
sg22
I18
sg23
I0
sg24
I405999
sg25
g5
sg26
F0.08934169278996865
sg27
g5
sg28
F0.72
sg29
I1426469
ssS'PRENTICE JAMES'
p296
(dp297
g3
g5
sg4
I564348
sg6
g5
sg7
I00
sg8
g5
sg9
S'james.prentice@enron.com'
p298
sg11
g5
sg12
I0
sg13
g5
sg14
g5
sg15
g5
sg16
g5
sg17
g5
sg18
g5
sg19
g5
sg20
I1095040
sg21
g5
sg22
g5
sg23
I0
sg24
I208809
sg25
g5
sg26
I0
sg27
I564348
sg28
I0
sg29
I886231
ssS'GRAY RODNEY'
p299
(dp300
g3
g5
sg4
I93585
sg6
g5
sg7
I00
sg8
g5
sg9
g5
sg11
I365625
sg12
I0
sg13
g5
sg14
g5
sg15
g5
sg16
g5
sg17
I680833
sg18
g5
sg19
g5
sg20
g5
sg21
g5
sg22
g5
sg23
I0
sg24
g5
sg25
I6615
sg26
I0
sg27
I1146658
sg28
I0
sg29
g5
ssS'PICKERING MARK R'
p301
(dp302
g3
I898
sg4
g5
sg6
I31653
sg7
I00
sg8
g5
sg9
S'mark.pickering@enron.com'
p303
sg11
g5
sg12
F0.0077951002227171495
sg13
g5
sg14
I728
sg15
I400000
sg16
I67
sg17
g5
sg18
g5
sg19
I300000
sg20
I28798
sg21
I7
sg22
I0
sg23
F0.04832246117394895
sg24
g5
sg25
I655037
sg26
F0.007253886010362694
sg27
I1386690
sg28
F0.0
sg29
I28798
ssS'THE TRAVEL AGENCY IN THE PARK'
p304
(dp305
g3
g5
sg4
g5
sg6
g5
sg7
I00
sg8
g5
sg9
g5
sg11
g5
sg12
I0
sg13
g5
sg14
g5
sg15
g5
sg16
g5
sg17
I362096
sg18
g5
sg19
g5
sg20
g5
sg21
g5
sg22
g5
sg23
I0
sg24
g5
sg25
g5
sg26
I0
sg27
I362096
sg28
I0
sg29
g5
ssS'NOLES JAMES L'
p306
(dp307
g3
g5
sg4
I774401
sg6
g5
sg7
I00
sg8
g5
sg9
g5
sg11
g5
sg12
I0
sg13
I-94556
sg14
g5
sg15
g5
sg16
g5
sg17
g5
sg18
g5
sg19
g5
sg20
I368705
sg21
g5
sg22
g5
sg23
I0
sg24
I463261
sg25
g5
sg26
I0
sg27
I774401
sg28
I0
sg29
g5
ssS'KEAN STEVEN J'
p308
(dp309
g3
I12754
sg4
g5
sg6
I41953
sg7
I00
sg8
g5
sg9
S'steven.kean@enron.com'
p310
sg11
I300000
sg12
F0.010976948408342482
sg13
g5
sg14
I3639
sg15
g5
sg16
I6759
sg17
I1231
sg18
g5
sg19
I1000000
sg20
I6153642
sg21
I140
sg22
I387
sg23
F0.10375725259560072
sg24
I4131594
sg25
I404338
sg26
F0.02700763593501768
sg27
I1747522
sg28
F0.05725699067909454
sg29
I2022048
ssS'FOWLER PEGGY'
p311
(dp312
g3
I517
sg4
g5
sg6
g5
sg7
I00
sg8
g5
sg9
S'kulvinder.fowler@enron.com'
p313
sg11
g5
sg12
F0.0
sg13
g5
sg14
I10
sg15
g5
sg16
I36
sg17
g5
sg18
g5
sg19
g5
sg20
I1884748
sg21
I0
sg22
I0
sg23
I0
sg24
I560170
sg25
g5
sg26
F0.0
sg27
g5
sg28
F0.0
sg29
I1324578
ssS'WASAFF GEORGE'
p314
(dp315
g3
I400
sg4
I831299
sg6
g5
sg7
I00
sg8
I-583325
sg9
S'george.wasaff@enron.com'
p316
sg11
I200000
sg12
F0.055
sg13
g5
sg14
I337
sg15
g5
sg16
I30
sg17
I1425
sg18
g5
sg19
I325000
sg20
I2056427
sg21
I22
sg22
I7
sg23
I0
sg24
I388167
sg25
I259996
sg26
F0.06744186046511629
sg27
I1034395
sg28
F0.23333333333333334
sg29
I1668260
ssS'WHITE JR THOMAS E'
p317
(dp318
g3
g5
sg4
g5
sg6
I81353
sg7
I00
sg8
g5
sg9
S'thomas.white@enron.com'
p319
sg11
g5
sg12
I0
sg13
g5
sg14
g5
sg15
g5
sg16
g5
sg17
I1085463
sg18
g5
sg19
I450000
sg20
I15144123
sg21
g5
sg22
g5
sg23
F0.2561952239539212
sg24
I13847074
sg25
I317543
sg26
I0
sg27
I1934359
sg28
I0
sg29
I1297049
ssS'CHRISTODOULOU DIOMEDES'
p320
(dp321
g3
g5
sg4
g5
sg6
g5
sg7
I00
sg8
g5
sg9
S'diomedes.christodoulou@enron.com'
p322
sg11
g5
sg12
I0
sg13
g5
sg14
g5
sg15
g5
sg16
g5
sg17
g5
sg18
g5
sg19
g5
sg20
I6077885
sg21
g5
sg22
g5
sg23
I0
sg24
I950730
sg25
g5
sg26
I0
sg27
g5
sg28
I0
sg29
I5127155
ssS'ALLEN PHILLIP K'
p323
(dp324
g3
I2902
sg4
I2869717
sg6
I13868
sg7
I00
sg8
I-3081055
sg9
S'phillip.allen@enron.com'
p325
sg11
I304805
sg12
F0.016195727084769126
sg13
I-126027
sg14
I1407
sg15
g5
sg16
I2195
sg17
I152
sg18
g5
sg19
I4175000
sg20
I1729541
sg21
I47
sg22
I65
sg23
F0.06866876284320765
sg24
I126027
sg25
I201955
sg26
F0.0219737100255052
sg27
I4484442
sg28
F0.029612756264236904
sg29
I1729541
ssS'SHARP VICTORIA T'
p326
(dp327
g3
I3136
sg4
I187469
sg6
I116337
sg7
I00
sg8
g5
sg9
S'vicki.sharp@enron.com'
p328
sg11
I422158
sg12
F0.007653061224489796
sg13
g5
sg14
I2477
sg15
g5
sg16
I136
sg17
I2401
sg18
g5
sg19
I600000
sg20
I494136
sg21
I24
sg22
I6
sg23
F0.46882480475204114
sg24
I213063
sg25
I248146
sg26
F0.009168704156479218
sg27
I1576511
sg28
F0.04411764705882353
sg29
I281073
ssS'JAEDICKE ROBERT'
p329
(dp330
g3
g5
sg4
g5
sg6
g5
sg7
I00
sg8
I-25000
sg9
g5
sg11
g5
sg12
I0
sg13
I-44093
sg14
g5
sg15
g5
sg16
g5
sg17
g5
sg18
I108750
sg19
g5
sg20
I431750
sg21
g5
sg22
g5
sg23
I0
sg24
I44093
sg25
g5
sg26
I0
sg27
I83750
sg28
I0
sg29
I431750
ssS'WINOKUR JR. HERBERT S'
p331
(dp332
g3
g5
sg4
g5
sg6
I1413
sg7
I00
sg8
I-25000
sg9
g5
sg11
g5
sg12
I0
sg13
g5
sg14
g5
sg15
g5
sg16
g5
sg17
g5
sg18
I108579
sg19
g5
sg20
g5
sg21
g5
sg22
g5
sg23
I0
sg24
g5
sg25
g5
sg26
I0
sg27
I84992
sg28
I0
sg29
g5
ssS'BROWN MICHAEL'
p333
(dp334
g3
I1486
sg4
g5
sg6
I49288
sg7
I00
sg8
g5
sg9
S'michael.brown@enron.com'
p335
sg11
g5
sg12
F0.008748317631224764
sg13
g5
sg14
I761
sg15
g5
sg16
I41
sg17
g5
sg18
g5
sg19
g5
sg20
g5
sg21
I13
sg22
I1
sg23
I0
sg24
g5
sg25
g5
sg26
F0.0091683038637852
sg27
I49288
sg28
F0.024390243902439025
sg29
g5
ssS'BADUM JAMES P'
p336
(dp337
g3
g5
sg4
I178980
sg6
I3486
sg7
I00
sg8
g5
sg9
g5
sg11
g5
sg12
I0
sg13
g5
sg14
g5
sg15
g5
sg16
g5
sg17
g5
sg18
g5
sg19
g5
sg20
I257817
sg21
g5
sg22
g5
sg23
I0
sg24
g5
sg25
g5
sg26
I0
sg27
I182466
sg28
I0
sg29
I257817
ssS'HUGHES JAMES A'
p338
(dp339
g3
I719
sg4
g5
sg6
g5
sg7
I00
sg8
g5
sg9
S'james.hughes@enron.com'
p340
sg11
g5
sg12
F0.048678720445062586
sg13
g5
sg14
I589
sg15
g5
sg16
I34
sg17
g5
sg18
g5
sg19
g5
sg20
I1118394
sg21
I35
sg22
I5
sg23
I0
sg24
I363428
sg25
g5
sg26
F0.05312084993359894
sg27
g5
sg28
F0.14705882352941177
sg29
I754966
ssS'REYNOLDS LAWRENCE'
p341
(dp342
g3
g5
sg4
I51365
sg6
I8409
sg7
I00
sg8
I-200000
sg9
g5
sg11
I156250
sg12
I0
sg13
I-140264
sg14
g5
sg15
g5
sg16
g5
sg17
I202052
sg18
g5
sg19
I100000
sg20
I4221891
sg21
g5
sg22
g5
sg23
F0.1100668856922211
sg24
I201483
sg25
I76399
sg26
I0
sg27
I394475
sg28
I0
sg29
I4160672
ssS'DIMICHELE RICHARD G'
p343
(dp344
g3
g5
sg4
g5
sg6
I35812
sg7
I00
sg8
g5
sg9
S'richard.dimichele@enron.com'
p345
sg11
I694862
sg12
I0
sg13
g5
sg14
g5
sg15
g5
sg16
g5
sg17
I374689
sg18
g5
sg19
I1000000
sg20
I8317782
sg21
g5
sg22
g5
sg23
F0.13627715116367567
sg24
I126027
sg25
I262788
sg26
I0
sg27
I2368151
sg28
I0
sg29
I8191755
ssS'BHATNAGAR SANJAY'
p346
(dp347
g3
I523
sg4
g5
sg6
g5
sg7
I00
sg8
g5
sg9
S'sanjay.bhatnagar@enron.com'
p348
sg11
g5
sg12
F0.0
sg13
I15456290
sg14
I463
sg15
g5
sg16
I29
sg17
I137864
sg18
I137864
sg19
g5
sS'total_stock_value'
p349
S'NaN'
p350
sg21
I0
sg22
I1
sg23
I0
sg24
I-2604490
sg25
g5
sg26
F0.0018115942028985507
sg27
I15456290
sg28
F0.034482758620689655
sg29
I2604490
ssS'CARTER REBECCA C'
p351
(dp352
g3
I312
sg4
g5
sg6
g5
sg7
I00
sg8
I-159792
sg9
S'rebecca.carter@enron.com'
p353
sg11
I75000
sg12
F0.09294871794871795
sg13
I-307301
sg14
I196
sg15
g5
sg16
I15
sg17
I540
sg18
g5
sg19
I300000
sg20
g5
sg21
I29
sg22
I7
sg23
I0
sg24
I307301
sg25
I261809
sg26
F0.11009174311926606
sg27
I477557
sg28
F0.4666666666666667
sg29
g5
ssS'BUCHANAN HAROLD G'
p354
(dp355
g3
I1088
sg4
g5
sg6
I600
sg7
I00
sg8
g5
sg9
S'john.buchanan@enron.com'
p356
sg11
I304805
sg12
F0.0
sg13
g5
sg14
I23
sg15
g5
sg16
I125
sg17
I1215
sg18
g5
sg19
I500000
sg20
I1014505
sg21
I0
sg22
I0
sg23
F0.0024191890072051514
sg24
I189041
sg25
I248017
sg26
F0.0
sg27
I1054637
sg28
F0.0
sg29
I825464
ssS'YEAP SOON'
p357
(dp358
g3
g5
sg4
g5
sg6
I55097
sg7
I00
sg8
g5
sg9
g5
sg11
g5
sg12
I0
sg13
g5
sg14
g5
sg15
g5
sg16
g5
sg17
g5
sg18
g5
sg19
g5
sg20
I192758
sg21
g5
sg22
g5
sg23
I0
sg24
g5
sg25
g5
sg26
I0
sg27
I55097
sg28
I0
sg29
I192758
ssS'MURRAY JULIA H'
p359
(dp360
g3
I2192
sg4
g5
sg6
I57580
sg7
I00
sg8
g5
sg9
S'julia.murray@enron.com'
p361
sg11
I125000
sg12
F0.005018248175182482
sg13
g5
sg14
I395
sg15
g5
sg16
I45
sg17
I330
sg18
g5
sg19
I400000
sg20
I597461
sg21
I11
sg22
I2
sg23
F0.25112960346120966
sg24
I196983
sg25
I229284
sg26
F0.00581135449262405
sg27
I812194
sg28
F0.044444444444444446
sg29
I400478
ssS'GARLAND C KEVIN'
p362
(dp363
g3
I209
sg4
g5
sg6
I48405
sg7
I00
sg8
g5
sg9
S'kevin.garland@enron.com'
p364
sg11
I375304
sg12
F0.04784688995215311
sg13
g5
sg14
I178
sg15
g5
sg16
I44
sg17
I60814
sg18
g5
sg19
I850000
sg20
I896153
sg21
I10
sg22
I27
sg23
F0.20869081596578515
sg24
I259907
sg25
I231946
sg26
F0.14624505928853754
sg27
I1566469
sg28
F0.6136363636363636
sg29
I636246
ssS'DODSON KEITH'
p365
(dp366
g3
I176
sg4
g5
sg6
I28164
sg7
I00
sg8
g5
sg9
S'keith.dodson@enron.com'
p367
sg11
g5
sg12
F0.056818181818181816
sg13
g5
sg14
I114
sg15
g5
sg16
I14
sg17
I774
sg18
g5
sg19
I70000
sg20
g5
sg21
I10
sg22
I3
sg23
F0.12743718411062294
sg24
g5
sg25
I221003
sg26
F0.06842105263157895
sg27
I319941
sg28
F0.21428571428571427
sg29
g5
ssS'YEAGER F SCOTT'
p368
(dp369
g3
g5
sg4
g5
sg6
I53947
sg7
I01
sg8
g5
sg9
S'scott.yeager@enron.com'
p370
sg11
g5
sg12
I0
sg13
g5
sg14
g5
sg15
g5
sg16
g5
sg17
I147950
sg18
g5
sg19
g5
sg20
I11884758
sg21
g5
sg22
g5
sg23
F0.3405680447971314
sg24
I3576206
sg25
I158403
sg26
I0
sg27
I360300
sg28
I0
sg29
I8308552
ssS'HIRKO JOSEPH'
p371
(dp372
g3
g5
sg4
I10259
sg6
I77978
sg7
I01
sg8
g5
sg9
S'joe.hirko@enron.com'
p373
sg11
g5
sg12
I0
sg13
g5
sg14
g5
sg15
g5
sg16
g5
sg17
I2856
sg18
g5
sg19
g5
sg20
I30766064
sg21
g5
sg22
g5
sg23
I0
sg24
g5
sg25
g5
sg26
I0
sg27
I91093
sg28
I0
sg29
I30766064
ssS'DIETRICH JANET R'
p374
(dp375
g3
I2572
sg4
g5
sg6
I3475
sg7
I00
sg8
g5
sg9
S'janet.dietrich@enron.com'
p376
sg11
I556416
sg12
F0.11858475894245724
sg13
g5
sg14
I1902
sg15
g5
sg16
I63
sg17
I473
sg18
g5
sg19
I600000
sg20
I1865087
sg21
I305
sg22
I14
sg23
F0.013894442223110755
sg24
I315068
sg25
I250100
sg26
F0.12106261859582543
sg27
I1410464
sg28
F0.2222222222222222
sg29
I1550019
ssS'DERRICK JR. JAMES V'
p377
(dp378
g3
I2181
sg4
g5
sg6
I51124
sg7
I00
sg8
I-1284000
sg9
S'james.derrick@enron.com'
p379
sg11
I484000
sg12
F0.029344337459880788
sg13
I-1787380
sg14
I1401
sg15
g5
sg16
I909
sg17
I7482
sg18
g5
sg19
I800000
sg20
I8831913
sg21
I64
sg22
I20
sg23
F0.10383142929677583
sg24
I1787380
sg25
I492375
sg26
F0.027184466019417475
sg27
I550981
sg28
F0.022002200220022004
sg29
I8831913
ssS'FREVERT MARK A'
p380
(dp381
g3
I3275
sg4
I6426990
sg6
I86987
sg7
I00
sg8
I-3367011
sg9
S'mark.frevert@enron.com'
p382
sg11
I1617011
sg12
F0.07389312977099237
sg13
g5
sg14
I2979
sg15
I2000000
sg16
I21
sg17
I7427621
sg18
g5
sg19
I2000000
sg20
I14622185
sg21
I242
sg22
I6
sg23
F0.0819911172440835
sg24
I4188667
sg25
I1060932
sg26
F0.07524271844660194
sg27
I17252530
sg28
F0.2857142857142857
sg29
I10433518
ssS'PAI LOU L'
p383
(dp384
g3
g5
sg4
g5
sg6
I32047
sg7
I00
sg8
g5
sg9
S'lou.pai@enron.com'
p385
sg11
g5
sg12
I0
sg13
g5
sg14
g5
sg15
g5
sg16
g5
sg17
I1829457
sg18
g5
sg19
I1000000
sg20
I23817930
sg21
g5
sg22
g5
sg23
F0.1223733098110196
sg24
I8453763
sg25
I261879
sg26
I0
sg27
I3123383
sg28
I0
sg29
I15364167
ssS'BAY FRANKLIN R'
p386
(dp387
g3
g5
sg4
I260455
sg6
I129142
sg7
I00
sg8
I-201641
sg9
S'frank.bay@enron.com'
p388
sg11
g5
sg12
I0
sg13
I-82782
sg14
g5
sg15
g5
sg16
g5
sg17
I69
sg18
g5
sg19
I400000
sg20
I63014
sg21
g5
sg22
g5
sg23
F0.5388303132210405
sg24
I145796
sg25
I239671
sg26
I0
sg27
I827696
sg28
I0
sg29
g5
ssS'HAYSLETT RODERICK J'
p389
(dp390
g3
I2649
sg4
g5
sg6
g5
sg7
I00
sg8
g5
sg9
S'rod.hayslett@enron.com'
p391
sg11
g5
sg12
F0.01321253303133258
sg13
g5
sg14
I571
sg15
g5
sg16
I1061
sg17
g5
sg18
g5
sg19
g5
sg20
I346663
sg21
I35
sg22
I38
sg23
I0
sg24
I346663
sg25
g5
sg26
F0.019676549865229112
sg27
g5
sg28
F0.03581526861451461
sg29
g5
ssS'FUGH JOHN L'
p392
(dp393
g3
g5
sg4
I50591
sg6
g5
sg7
I00
sg8
g5
sg9
g5
sg11
g5
sg12
I0
sg13
g5
sg14
g5
sg15
g5
sg16
g5
sg17
g5
sg18
g5
sg19
g5
sg20
I176378
sg21
g5
sg22
g5
sg23
I0
sg24
g5
sg25
g5
sg26
I0
sg27
I50591
sg28
I0
sg29
I176378
ssS'FALLON JAMES B'
p394
(dp395
g3
I1755
sg4
g5
sg6
I95924
sg7
I00
sg8
g5
sg9
S'jim.fallon@enron.com'
p396
sg11
I374347
sg12
F0.023931623931623933
sg13
g5
sg14
I1604
sg15
g5
sg16
I75
sg17
I401481
sg18
g5
sg19
I2500000
sg20
I2332399
sg21
I42
sg22
I37
sg23
F0.31493033212076643
sg24
I1392142
sg25
I304588
sg26
F0.04316939890710383
sg27
I3676340
sg28
F0.49333333333333335
sg29
I940257
ssS'KOENIG MARK E'
p397
(dp398
g3
I2374
sg4
g5
sg6
I127017
sg7
I01
sg8
g5
sg9
S'mark.koenig@enron.com'
p399
sg11
I300000
sg12
F0.02232518955349621
sg13
g5
sg14
I2271
sg15
g5
sg16
I61
sg17
I150458
sg18
g5
sg19
I700000
sg20
I1920055
sg21
I53
sg22
I15
sg23
F0.40980364321526974
sg24
I1248318
sg25
I309946
sg26
F0.02792607802874743
sg27
I1587421
sg28
F0.2459016393442623
sg29
I671737
ssS'SAVAGE FRANK'
p400
(dp401
g3
g5
sg4
g5
sg6
g5
sg7
I00
sg8
I-121284
sg9
g5
sg11
g5
sg12
I0
sg13
g5
sg14
g5
sg15
g5
sg16
g5
sg17
g5
sg18
I125034
sg19
g5
sg20
g5
sg21
g5
sg22
g5
sg23
I0
sg24
g5
sg25
g5
sg26
I0
sg27
I3750
sg28
I0
sg29
g5
ssS'IZZO LAWRENCE L'
p402
(dp403
g3
I496
sg4
g5
sg6
I28093
sg7
I00
sg8
g5
sg9
S'larry.izzo@enron.com'
p404
sg11
I312500
sg12
F0.056451612903225805
sg13
g5
sg14
I437
sg15
g5
sg16
I19
sg17
I1553729
sg18
g5
sg19
g5
sg20
I5819980
sg21
I28
sg22
I5
sg23
F0.329443910218824
sg24
I3654808
sg25
I85274
sg26
F0.06407766990291262
sg27
I1979596
sg28
F0.2631578947368421
sg29
I2165172
ssS'TILNEY ELIZABETH A'
p405
(dp406
g3
I460
sg4
g5
sg6
g5
sg7
I00
sg8
I-575000
sg9
S'elizabeth.tilney@enron.com'
p407
sg11
I275000
sg12
F0.021739130434782608
sg13
g5
sg14
I379
sg15
g5
sg16
I19
sg17
I152055
sg18
g5
sg19
I300000
sg20
I1168042
sg21
I10
sg22
I11
sg23
I0
sg24
I576792
sg25
I247338
sg26
F0.04384133611691023
sg27
I399393
sg28
F0.5789473684210527
sg29
I591250
ssS'MARTIN AMANDA K'
p408
(dp409
g3
I1522
sg4
I85430
sg6
I8211
sg7
I00
sg8
g5
sg9
S'a..martin@enron.com'
p410
sg11
I5145434
sg12
F0.005256241787122208
sg13
g5
sg14
I477
sg15
g5
sg16
I230
sg17
I2818454
sg18
g5
sg19
g5
sg20
I2070306
sg21
I8
sg22
I0
sg23
F0.023494436130671526
sg24
g5
sg25
I349487
sg26
F0.0045662100456621
sg27
I8407016
sg28
F0.0
sg29
I2070306
ssS'BUY RICHARD B'
p411
(dp412
g3
I3523
sg4
I649584
sg6
g5
sg7
I00
sg8
I-694862
sg9
S'rick.buy@enron.com'
p413
sg11
I769862
sg12
F0.04428044280442804
sg13
g5
sg14
I2333
sg15
g5
sg16
I1053
sg17
I400572
sg18
g5
sg19
I900000
sg20
I3444470
sg21
I156
sg22
I71
sg23
I0
sg24
I901657
sg25
I330546
sg26
F0.04960664335664336
sg27
I2355702
sg28
F0.06742640075973409
sg29
I2542813
ssS'GRAMM WENDY L'
p414
(dp415
g3
g5
sg4
g5
sg6
g5
sg7
I00
sg8
g5
sg9
g5
sg11
g5
sg12
I0
sg13
g5
sg14
g5
sg15
g5
sg16
g5
sg17
g5
sg18
I119292
sg19
g5
sg20
g5
sg21
g5
sg22
g5
sg23
I0
sg24
g5
sg25
g5
sg26
I0
sg27
I119292
sg28
I0
sg29
g5
ssS'CAUSEY RICHARD A'
p416
(dp417
g3
I1892
sg4
g5
sg6
I30674
sg7
I01
sg8
I-235000
sg9
S'richard.causey@enron.com'
p418
sg11
I350000
sg12
F0.0306553911205074
sg13
g5
sg14
I1585
sg15
g5
sg16
I49
sg17
I307895
sg18
g5
sg19
I1000000
sg20
I2502063
sg21
I58
sg22
I12
sg23
F0.07387960663697737
sg24
I2502063
sg25
I415189
sg26
F0.03606388459556929
sg27
I1868758
sg28
F0.24489795918367346
sg29
g5
ssS'TAYLOR MITCHELL S'
p419
(dp420
g3
I533
sg4
I227449
sg6
g5
sg7
I00
sg8
g5
sg9
S'mitchell.taylor@enron.com'
p421
sg11
g5
sg12
F0.0
sg13
g5
sg14
I300
sg15
g5
sg16
I29
sg17
g5
sg18
g5
sg19
I600000
sg20
I3745048
sg21
I0
sg22
I0
sg23
I0
sg24
I563798
sg25
I265214
sg26
F0.0
sg27
I1092663
sg28
F0.0
sg29
I3181250
ssS'DONAHUE JR JEFFREY M'
p422
(dp423
g3
I865
sg4
g5
sg6
I96268
sg7
I00
sg8
I-300000
sg9
S'jeff.donahue@enron.com'
p424
sg11
g5
sg12
F0.21734104046242775
sg13
g5
sg14
I772
sg15
g5
sg16
I22
sg17
I891
sg18
g5
sg19
I800000
sg20
I1080988
sg21
I188
sg22
I11
sg23
F0.34554075541724544
sg24
I315068
sg25
I278601
sg26
F0.22435174746335965
sg27
I875760
sg28
F0.5
sg29
I765920
ssS'GLISAN JR BEN F'
p425
(dp426
g3
I873
sg4
g5
sg6
I125978
sg7
I01
sg8
g5
sg9
S'ben.glisan@enron.com'
p427
sg11
I71023
sg12
F0.05956471935853379
sg13
g5
sg14
I874
sg15
g5
sg16
I16
sg17
I200308
sg18
g5
sg19
I600000
sg20
I778546
sg21
I52
sg22
I6
sg23
F0.45814346758796254
sg24
I393818
sg25
I274975
sg26
F0.06524184476940383
sg27
I1272284
sg28
F0.375
sg29
I384728
ss.